target datalayout = "e-m:e-p270:32:32-p271:32:32-p272:64:64-i64:64-i128:128-f80:128-n8:16:32:64-S128"
target triple = "x86_64-pc-linux-gnu"

; Function Attrs: nounwind uwtable
define internal void @dc_8x8_c(ptr noundef %0, i64 noundef %1, ptr noundef %2, ptr noundef %3) #1 {
  %5 = alloca ptr, align 8
  %6 = alloca i64, align 8
  %7 = alloca ptr, align 8
  %8 = alloca ptr, align 8
  %9 = alloca ptr, align 8
  %10 = alloca ptr, align 8
  %11 = alloca ptr, align 8
  %12 = alloca i32, align 4
  %13 = alloca i32, align 4
  store ptr %0, ptr %5, align 8, !tbaa !10
  store i64 %1, ptr %6, align 8, !tbaa !12
  store ptr %2, ptr %7, align 8, !tbaa !10
  store ptr %3, ptr %8, align 8, !tbaa !10
  call void @llvm.lifetime.start.p0(i64 8, ptr %9) #10
  %14 = load ptr, ptr %5, align 8, !tbaa !10
  store ptr %14, ptr %9, align 8, !tbaa !10
  call void @llvm.lifetime.start.p0(i64 8, ptr %10) #10
  %15 = load ptr, ptr %7, align 8, !tbaa !10
  store ptr %15, ptr %10, align 8, !tbaa !10
  call void @llvm.lifetime.start.p0(i64 8, ptr %11) #10
  %16 = load ptr, ptr %8, align 8, !tbaa !10
  store ptr %16, ptr %11, align 8, !tbaa !10
  call void @llvm.lifetime.start.p0(i64 4, ptr %12) #10
  %17 = load ptr, ptr %10, align 8, !tbaa !10
  %18 = getelementptr inbounds i8, ptr %17, i64 0
  %19 = load i8, ptr %18, align 1, !tbaa !14
  %20 = zext i8 %19 to i32
  %21 = load ptr, ptr %10, align 8, !tbaa !10
  %22 = getelementptr inbounds i8, ptr %21, i64 1
  %23 = load i8, ptr %22, align 1, !tbaa !14
  %24 = zext i8 %23 to i32
  %25 = add nsw i32 %20, %24
  %26 = load ptr, ptr %10, align 8, !tbaa !10
  %27 = getelementptr inbounds i8, ptr %26, i64 2
  %28 = load i8, ptr %27, align 1, !tbaa !14
  %29 = zext i8 %28 to i32
  %30 = add nsw i32 %25, %29
  %31 = load ptr, ptr %10, align 8, !tbaa !10
  %32 = getelementptr inbounds i8, ptr %31, i64 3
  %33 = load i8, ptr %32, align 1, !tbaa !14
  %34 = zext i8 %33 to i32
  %35 = add nsw i32 %30, %34
  %36 = load ptr, ptr %10, align 8, !tbaa !10
  %37 = getelementptr inbounds i8, ptr %36, i64 4
  %38 = load i8, ptr %37, align 1, !tbaa !14
  %39 = zext i8 %38 to i32
  %40 = add nsw i32 %35, %39
  %41 = load ptr, ptr %10, align 8, !tbaa !10
  %42 = getelementptr inbounds i8, ptr %41, i64 5
  %43 = load i8, ptr %42, align 1, !tbaa !14
  %44 = zext i8 %43 to i32
  %45 = add nsw i32 %40, %44
  %46 = load ptr, ptr %10, align 8, !tbaa !10
  %47 = getelementptr inbounds i8, ptr %46, i64 6
  %48 = load i8, ptr %47, align 1, !tbaa !14
  %49 = zext i8 %48 to i32
  %50 = add nsw i32 %45, %49
  %51 = load ptr, ptr %10, align 8, !tbaa !10
  %52 = getelementptr inbounds i8, ptr %51, i64 7
  %53 = load i8, ptr %52, align 1, !tbaa !14
  %54 = zext i8 %53 to i32
  %55 = add nsw i32 %50, %54
  %56 = load ptr, ptr %11, align 8, !tbaa !10
  %57 = getelementptr inbounds i8, ptr %56, i64 0
  %58 = load i8, ptr %57, align 1, !tbaa !14
  %59 = zext i8 %58 to i32
  %60 = add nsw i32 %55, %59
  %61 = load ptr, ptr %11, align 8, !tbaa !10
  %62 = getelementptr inbounds i8, ptr %61, i64 1
  %63 = load i8, ptr %62, align 1, !tbaa !14
  %64 = zext i8 %63 to i32
  %65 = add nsw i32 %60, %64
  %66 = load ptr, ptr %11, align 8, !tbaa !10
  %67 = getelementptr inbounds i8, ptr %66, i64 2
  %68 = load i8, ptr %67, align 1, !tbaa !14
  %69 = zext i8 %68 to i32
  %70 = add nsw i32 %65, %69
  %71 = load ptr, ptr %11, align 8, !tbaa !10
  %72 = getelementptr inbounds i8, ptr %71, i64 3
  %73 = load i8, ptr %72, align 1, !tbaa !14
  %74 = zext i8 %73 to i32
  %75 = add nsw i32 %70, %74
  %76 = load ptr, ptr %11, align 8, !tbaa !10
  %77 = getelementptr inbounds i8, ptr %76, i64 4
  %78 = load i8, ptr %77, align 1, !tbaa !14
  %79 = zext i8 %78 to i32
  %80 = add nsw i32 %75, %79
  %81 = load ptr, ptr %11, align 8, !tbaa !10
  %82 = getelementptr inbounds i8, ptr %81, i64 5
  %83 = load i8, ptr %82, align 1, !tbaa !14
  %84 = zext i8 %83 to i32
  %85 = add nsw i32 %80, %84
  %86 = load ptr, ptr %11, align 8, !tbaa !10
  %87 = getelementptr inbounds i8, ptr %86, i64 6
  %88 = load i8, ptr %87, align 1, !tbaa !14
  %89 = zext i8 %88 to i32
  %90 = add nsw i32 %85, %89
  %91 = load ptr, ptr %11, align 8, !tbaa !10
  %92 = getelementptr inbounds i8, ptr %91, i64 7
  %93 = load i8, ptr %92, align 1, !tbaa !14
  %94 = zext i8 %93 to i32
  %95 = add nsw i32 %90, %94
  %96 = add nsw i32 %95, 8
  %97 = ashr i32 %96, 4
  %98 = mul i32 %97, 16843009
  store i32 %98, ptr %12, align 4, !tbaa !15
  call void @llvm.lifetime.start.p0(i64 4, ptr %13) #10
  %99 = load i64, ptr %6, align 8, !tbaa !12
  %100 = udiv i64 %99, 1
  store i64 %100, ptr %6, align 8, !tbaa !12
  store i32 0, ptr %13, align 4, !tbaa !15
  br label %101

101:                                              ; preds = %114, %4
  %102 = load i32, ptr %13, align 4, !tbaa !15
  %103 = icmp slt i32 %102, 8
  br i1 %103, label %104, label %117

104:                                              ; preds = %101
  %105 = load i32, ptr %12, align 4, !tbaa !15
  %106 = load ptr, ptr %9, align 8, !tbaa !10
  %107 = getelementptr inbounds i8, ptr %106, i64 0
  store i32 %105, ptr %107, align 4, !tbaa !14
  %108 = load i32, ptr %12, align 4, !tbaa !15
  %109 = load ptr, ptr %9, align 8, !tbaa !10
  %110 = getelementptr inbounds i8, ptr %109, i64 4
  store i32 %108, ptr %110, align 4, !tbaa !14
  %111 = load i64, ptr %6, align 8, !tbaa !12
  %112 = load ptr, ptr %9, align 8, !tbaa !10
  %113 = getelementptr inbounds i8, ptr %112, i64 %111
  store ptr %113, ptr %9, align 8, !tbaa !10
  br label %114

114:                                              ; preds = %104
  %115 = load i32, ptr %13, align 4, !tbaa !15
  %116 = add nsw i32 %115, 1
  store i32 %116, ptr %13, align 4, !tbaa !15
  br label %101, !llvm.loop !21

117:                                              ; preds = %101
  call void @llvm.lifetime.end.p0(i64 4, ptr %13) #10
  call void @llvm.lifetime.end.p0(i64 4, ptr %12) #10
  call void @llvm.lifetime.end.p0(i64 8, ptr %11) #10
  call void @llvm.lifetime.end.p0(i64 8, ptr %10) #10
  call void @llvm.lifetime.end.p0(i64 8, ptr %9) #10
  ret void
}