; Function Attrs: nofree norecurse nosync nounwind memory(argmem: readwrite) uwtable
define internal void @dc_8x8_c(ptr noundef writeonly captures(none) %0, i64 noundef %1, ptr noundef readonly captures(none) %2, ptr noundef readonly captures(none) %3) #2 {
  %5 = load i8, ptr %2, align 1, !tbaa !8
  %6 = zext i8 %5 to i32
  %7 = getelementptr inbounds nuw i8, ptr %2, i64 1
  %8 = load i8, ptr %7, align 1, !tbaa !8
  %9 = zext i8 %8 to i32
  %10 = getelementptr inbounds nuw i8, ptr %2, i64 2
  %11 = load i8, ptr %10, align 1, !tbaa !8
  %12 = zext i8 %11 to i32
  %13 = getelementptr inbounds nuw i8, ptr %2, i64 3
  %14 = load i8, ptr %13, align 1, !tbaa !8
  %15 = zext i8 %14 to i32
  %16 = getelementptr inbounds nuw i8, ptr %2, i64 4
  %17 = load i8, ptr %16, align 1, !tbaa !8
  %18 = zext i8 %17 to i32
  %19 = getelementptr inbounds nuw i8, ptr %2, i64 5
  %20 = load i8, ptr %19, align 1, !tbaa !8
  %21 = zext i8 %20 to i32
  %22 = getelementptr inbounds nuw i8, ptr %2, i64 6
  %23 = load i8, ptr %22, align 1, !tbaa !8
  %24 = zext i8 %23 to i32
  %25 = getelementptr inbounds nuw i8, ptr %2, i64 7
  %26 = load i8, ptr %25, align 1, !tbaa !8
  %27 = zext i8 %26 to i32
  %28 = load i8, ptr %3, align 1, !tbaa !8
  %29 = zext i8 %28 to i32
  %30 = getelementptr inbounds nuw i8, ptr %3, i64 1
  %31 = load i8, ptr %30, align 1, !tbaa !8
  %32 = zext i8 %31 to i32
  %33 = getelementptr inbounds nuw i8, ptr %3, i64 2
  %34 = load i8, ptr %33, align 1, !tbaa !8
  %35 = zext i8 %34 to i32
  %36 = getelementptr inbounds nuw i8, ptr %3, i64 3
  %37 = load i8, ptr %36, align 1, !tbaa !8
  %38 = zext i8 %37 to i32
  %39 = getelementptr inbounds nuw i8, ptr %3, i64 4
  %40 = load i8, ptr %39, align 1, !tbaa !8
  %41 = zext i8 %40 to i32
  %42 = getelementptr inbounds nuw i8, ptr %3, i64 5
  %43 = load i8, ptr %42, align 1, !tbaa !8
  %44 = zext i8 %43 to i32
  %45 = getelementptr inbounds nuw i8, ptr %3, i64 6
  %46 = load i8, ptr %45, align 1, !tbaa !8
  %47 = zext i8 %46 to i32
  %48 = getelementptr inbounds nuw i8, ptr %3, i64 7
  %49 = load i8, ptr %48, align 1, !tbaa !8
  %50 = zext i8 %49 to i32
  %51 = add nuw nsw i32 %6, 8
  %52 = add nuw nsw i32 %51, %9
  %53 = add nuw nsw i32 %52, %12
  %54 = add nuw nsw i32 %53, %15
  %55 = add nuw nsw i32 %54, %18
  %56 = add nuw nsw i32 %55, %21
  %57 = add nuw nsw i32 %56, %24
  %58 = add nuw nsw i32 %57, %27
  %59 = add nuw nsw i32 %58, %29
  %60 = add nuw nsw i32 %59, %32
  %61 = add nuw nsw i32 %60, %35
  %62 = add nuw nsw i32 %61, %38
  %63 = add nuw nsw i32 %62, %41
  %64 = add nuw nsw i32 %63, %44
  %65 = add nuw nsw i32 %64, %47
  %66 = add nuw nsw i32 %65, %50
  %67 = lshr i32 %66, 4
  %68 = mul nuw i32 %67, 16843009
  br label %69

69:                                               ; preds = %4, %69
  %.029 = phi i32 [ 0, %4 ], [ %72, %69 ]
  %.02728 = phi ptr [ %0, %4 ], [ %71, %69 ]
  store i32 %68, ptr %.02728, align 4, !tbaa !8
  %70 = getelementptr inbounds nuw i8, ptr %.02728, i64 4
  store i32 %68, ptr %70, align 4, !tbaa !8
  %71 = getelementptr inbounds i8, ptr %.02728, i64 %1
  %72 = add nuw nsw i32 %.029, 1
  %exitcond.not = icmp eq i32 %72, 8
  br i1 %exitcond.not, label %73, label %69, !llvm.loop !13

73:                                               ; preds = %69
  ret void
}